target datalayout = "e-m:e-p270:32:32-p271:32:32-p272:64:64-i64:64-i128:128-f80:128-n8:16:32:64-S128"
target triple = "x86_64-pc-linux-gnu"

%"class.pxrInternal_v0_24__pxrReserved__::GfVec3f" = type { [3 x float] }

; Function Attrs: mustprogress nounwind uwtable
define linkonce_odr void @_ZN32pxrInternal_v0_24__pxrReserved__7GfVec3fC2Efff(ptr noundef nonnull align 4 dereferenceable(12) %0, float noundef %1, float noundef %2, float noundef %3) unnamed_addr #2 comdat align 2 {
  %5 = alloca ptr, align 8
  %6 = alloca float, align 4
  %7 = alloca float, align 4
  %8 = alloca float, align 4
  store ptr %0, ptr %5, align 8
  store float %1, ptr %6, align 4
  store float %2, ptr %7, align 4
  store float %3, ptr %8, align 4
  %9 = load ptr, ptr %5, align 8
  %10 = getelementptr inbounds nuw %"class.pxrInternal_v0_24__pxrReserved__::GfVec3f", ptr %9, i32 0, i32 0
  %11 = load float, ptr %6, align 4
  store float %11, ptr %10, align 4
  %12 = getelementptr inbounds float, ptr %10, i64 1
  %13 = load float, ptr %7, align 4
  store float %13, ptr %12, align 4
  %14 = getelementptr inbounds float, ptr %10, i64 2
  %15 = load float, ptr %8, align 4
  store float %15, ptr %14, align 4
  ret void
}

; Function Attrs: mustprogress uwtable
define linkonce_odr { <2 x float>, float } @_ZNK32pxrInternal_v0_24__pxrReserved__7GfVec3fngEv(ptr noundef nonnull align 4 dereferenceable(12) %0) #0 comdat align 2 {
  %2 = alloca %"class.pxrInternal_v0_24__pxrReserved__::GfVec3f", align 4
  %3 = alloca ptr, align 8
  %4 = alloca { <2 x float>, float }, align 8
  store ptr %0, ptr %3, align 8
  %5 = load ptr, ptr %3, align 8
  %6 = getelementptr inbounds nuw %"class.pxrInternal_v0_24__pxrReserved__::GfVec3f", ptr %5, i32 0, i32 0
  %7 = getelementptr inbounds [3 x float], ptr %6, i64 0, i64 0
  %8 = load float, ptr %7, align 4
  %9 = fneg float %8
  %10 = getelementptr inbounds nuw %"class.pxrInternal_v0_24__pxrReserved__::GfVec3f", ptr %5, i32 0, i32 0
  %11 = getelementptr inbounds [3 x float], ptr %10, i64 0, i64 1
  %12 = load float, ptr %11, align 4
  %13 = fneg float %12
  %14 = getelementptr inbounds nuw %"class.pxrInternal_v0_24__pxrReserved__::GfVec3f", ptr %5, i32 0, i32 0
  %15 = getelementptr inbounds [3 x float], ptr %14, i64 0, i64 2
  %16 = load float, ptr %15, align 4
  %17 = fneg float %16
  call void @_ZN32pxrInternal_v0_24__pxrReserved__7GfVec3fC2Efff(ptr noundef nonnull align 4 dereferenceable(12) %2, float noundef %9, float noundef %13, float noundef %17)
  %18 = getelementptr inbounds nuw %"class.pxrInternal_v0_24__pxrReserved__::GfVec3f", ptr %2, i32 0, i32 0
  call void @llvm.memcpy.p0.p0.i64(ptr align 8 %4, ptr align 4 %18, i64 12, i1 false)
  %19 = load { <2 x float>, float }, ptr %4, align 8
  ret { <2 x float>, float } %19
}

; Function Attrs: mustprogress uwtable
define noundef zeroext i1 @_ZN32pxrInternal_v0_24__pxrReserved__16UsdGeomCapsule_113ComputeExtentEdddRKNS_7TfTokenEPNS_7VtArrayINS_7GfVec3fEEE(double noundef %0, double noundef %1, double noundef %2, ptr noundef nonnull align 8 dereferenceable(8) %3, ptr noundef %4) #8 align 2 {
  %6 = alloca i1, align 1
  %7 = alloca double, align 8
  %8 = alloca double, align 8
  %9 = alloca double, align 8
  %10 = alloca ptr, align 8
  %11 = alloca ptr, align 8
  %12 = alloca %"class.pxrInternal_v0_24__pxrReserved__::GfVec3f", align 4
  %13 = alloca %"class.pxrInternal_v0_24__pxrReserved__::GfVec3f", align 4
  %14 = alloca { <2 x float>, float }, align 8
  store double %0, ptr %7, align 8
  store double %1, ptr %8, align 8
  store double %2, ptr %9, align 8
  store ptr %3, ptr %10, align 8
  store ptr %4, ptr %11, align 8
  %15 = load ptr, ptr %11, align 8
  call void @_ZN32pxrInternal_v0_24__pxrReserved__7VtArrayINS_7GfVec3fEE6resizeEm(ptr noundef nonnull align 8 dereferenceable(40) %15, i64 noundef 2)
  %16 = load double, ptr %7, align 8
  %17 = load double, ptr %8, align 8
  %18 = load double, ptr %9, align 8
  %19 = load ptr, ptr %10, align 8
  %20 = call noundef zeroext i1 @_ZN32pxrInternal_v0_24__pxrReserved__L17_ComputeExtentMaxEdddRKNS_7TfTokenEPNS_7GfVec3fE(double noundef %16, double noundef %17, double noundef %18, ptr noundef nonnull align 8 dereferenceable(8) %19, ptr noundef %12)
  br i1 %20, label %22, label %21

21:                                               ; preds = %5
  store i1 false, ptr %6, align 1
  br label %29

22:                                               ; preds = %5
  %23 = call { <2 x float>, float } @_ZNK32pxrInternal_v0_24__pxrReserved__7GfVec3fngEv(ptr noundef nonnull align 4 dereferenceable(12) %12)
  %24 = getelementptr inbounds nuw %"class.pxrInternal_v0_24__pxrReserved__::GfVec3f", ptr %13, i32 0, i32 0
  store { <2 x float>, float } %23, ptr %14, align 8
  call void @llvm.memcpy.p0.p0.i64(ptr align 4 %24, ptr align 8 %14, i64 12, i1 false)
  %25 = load ptr, ptr %11, align 8
  %26 = call noundef nonnull align 4 dereferenceable(12) ptr @_ZN32pxrInternal_v0_24__pxrReserved__7VtArrayINS_7GfVec3fEEixEm(ptr noundef nonnull align 8 dereferenceable(40) %25, i64 noundef 0)
  call void @llvm.memcpy.p0.p0.i64(ptr align 4 %26, ptr align 4 %13, i64 12, i1 false)
  %27 = load ptr, ptr %11, align 8
  %28 = call noundef nonnull align 4 dereferenceable(12) ptr @_ZN32pxrInternal_v0_24__pxrReserved__7VtArrayINS_7GfVec3fEEixEm(ptr noundef nonnull align 8 dereferenceable(40) %27, i64 noundef 1)
  call void @llvm.memcpy.p0.p0.i64(ptr align 4 %28, ptr align 4 %12, i64 12, i1 false)
  store i1 true, ptr %6, align 1
  br label %29

29:                                               ; preds = %22, %21
  %30 = load i1, ptr %6, align 1
  ret i1 %30
}