; Function Attrs: mustprogress uwtable
define noundef zeroext i1 @_ZN32pxrInternal_v0_24__pxrReserved__16UsdGeomCapsule_113ComputeExtentEdddRKNS_7TfTokenEPNS_7VtArrayINS_7GfVec3fEEE(double noundef %0, double noundef %1, double noundef %2, ptr nocapture noundef nonnull readonly align 8 dereferenceable(8) %3, ptr noundef nonnull %4) local_unnamed_addr #8 align 2 {
  %6 = alloca %"class.pxrInternal_v0_24__pxrReserved__::GfVec3f", align 4
  tail call void @_ZN32pxrInternal_v0_24__pxrReserved__7VtArrayINS_7GfVec3fEE6resizeEm(ptr noundef nonnull align 8 dereferenceable(40) %4, i64 noundef 2)
  %7 = call fastcc noundef zeroext i1 @_ZN32pxrInternal_v0_24__pxrReserved__L17_ComputeExtentMaxEdddRKNS_7TfTokenEPNS_7GfVec3fE(double noundef %0, double noundef %1, double noundef %2, ptr noundef nonnull align 8 dereferenceable(8) %3, ptr noundef nonnull %6)
  br i1 %7, label %8, label %19

8:                                                ; preds = %5
  %9 = load float, ptr %6, align 4
  %10 = fneg float %9
  %11 = getelementptr inbounds i8, ptr %6, i64 4
  %12 = load float, ptr %11, align 4
  %13 = fneg float %12
  %14 = getelementptr inbounds i8, ptr %6, i64 8
  %15 = load float, ptr %14, align 4
  %16 = fneg float %15
  %.sroa.0.0.vec.insert.i = insertelement <2 x float> poison, float %10, i64 0
  %.sroa.0.4.vec.insert.i = insertelement <2 x float> %.sroa.0.0.vec.insert.i, float %13, i64 1
  %17 = tail call noundef nonnull align 4 dereferenceable(12) ptr @_ZN32pxrInternal_v0_24__pxrReserved__7VtArrayINS_7GfVec3fEEixEm(ptr noundef nonnull align 8 dereferenceable(40) %4, i64 noundef 0)
  store <2 x float> %.sroa.0.4.vec.insert.i, ptr %17, align 4
  %.sroa.22.0..sroa_idx = getelementptr inbounds i8, ptr %17, i64 8
  store float %16, ptr %.sroa.22.0..sroa_idx, align 4
  %18 = tail call noundef nonnull align 4 dereferenceable(12) ptr @_ZN32pxrInternal_v0_24__pxrReserved__7VtArrayINS_7GfVec3fEEixEm(ptr noundef nonnull align 8 dereferenceable(40) %4, i64 noundef 1)
  call void @llvm.memcpy.p0.p0.i64(ptr noundef nonnull align 4 dereferenceable(12) %18, ptr noundef nonnull align 4 dereferenceable(12) %6, i64 12, i1 false)
  br label %19

19:                                               ; preds = %5, %8
  ret i1 %7
}